target datalayout = "e-m:e-p270:32:32-p271:32:32-p272:64:64-i64:64-i128:128-f80:128-n8:16:32:64-S128"
target triple = "x86_64-pc-linux-gnu"

%struct.CLzma2Dec = type { %struct.CLzmaDec, i32, i32, i32, i8, i32, i32, i32 }
%struct.CLzmaDec = type { %struct._CLzmaProps, ptr, ptr, ptr, i32, i32, i64, i64, i32, i32, i32, [4 x i32], i32, i32, i32, i32, i32, [20 x i8] }
%struct._CLzmaProps = type { i32, i32, i32, i32 }

; Function Attrs: nounwind uwtable
define internal i32 @Lzma2Dec_GetOldProps(i8 noundef zeroext %0, ptr noundef %1) #0 {
  %3 = alloca i32, align 4
  %4 = alloca i8, align 1
  %5 = alloca ptr, align 8
  %6 = alloca i32, align 4
  store i8 %0, ptr %4, align 1
  store ptr %1, ptr %5, align 8
  %7 = load i8, ptr %4, align 1
  %8 = zext i8 %7 to i32
  %9 = icmp sgt i32 %8, 40
  br i1 %9, label %10, label %11

10:                                               ; preds = %2
  store i32 4, ptr %3, align 4
  br label %49

11:                                               ; preds = %2
  %12 = load i8, ptr %4, align 1
  %13 = zext i8 %12 to i32
  %14 = icmp eq i32 %13, 40
  br i1 %14, label %15, label %16

15:                                               ; preds = %11
  br label %26

16:                                               ; preds = %11
  %17 = load i8, ptr %4, align 1
  %18 = zext i8 %17 to i32
  %19 = and i32 %18, 1
  %20 = or i32 2, %19
  %21 = load i8, ptr %4, align 1
  %22 = zext i8 %21 to i32
  %23 = sdiv i32 %22, 2
  %24 = add nsw i32 %23, 11
  %25 = shl i32 %20, %24
  br label %26

26:                                               ; preds = %16, %15
  %27 = phi i32 [ -1, %15 ], [ %25, %16 ]
  store i32 %27, ptr %6, align 4
  %28 = load ptr, ptr %5, align 8
  %29 = getelementptr inbounds i8, ptr %28, i64 0
  store i8 4, ptr %29, align 1
  %30 = load i32, ptr %6, align 4
  %31 = trunc i32 %30 to i8
  %32 = load ptr, ptr %5, align 8
  %33 = getelementptr inbounds i8, ptr %32, i64 1
  store i8 %31, ptr %33, align 1
  %34 = load i32, ptr %6, align 4
  %35 = lshr i32 %34, 8
  %36 = trunc i32 %35 to i8
  %37 = load ptr, ptr %5, align 8
  %38 = getelementptr inbounds i8, ptr %37, i64 2
  store i8 %36, ptr %38, align 1
  %39 = load i32, ptr %6, align 4
  %40 = lshr i32 %39, 16
  %41 = trunc i32 %40 to i8
  %42 = load ptr, ptr %5, align 8
  %43 = getelementptr inbounds i8, ptr %42, i64 3
  store i8 %41, ptr %43, align 1
  %44 = load i32, ptr %6, align 4
  %45 = lshr i32 %44, 24
  %46 = trunc i32 %45 to i8
  %47 = load ptr, ptr %5, align 8
  %48 = getelementptr inbounds i8, ptr %47, i64 4
  store i8 %46, ptr %48, align 1
  store i32 0, ptr %3, align 4
  br label %49

49:                                               ; preds = %26, %10
  %50 = load i32, ptr %3, align 4
  ret i32 %50
}

; Function Attrs: nounwind uwtable
define i32 @Lzma2Decode(ptr noundef %0, ptr noundef %1, ptr noundef %2, ptr noundef %3, i8 noundef zeroext %4, i32 noundef %5, ptr noundef %6, ptr noundef %7) #0 {
  %9 = alloca i32, align 4
  %10 = alloca ptr, align 8
  %11 = alloca ptr, align 8
  %12 = alloca ptr, align 8
  %13 = alloca ptr, align 8
  %14 = alloca i8, align 1
  %15 = alloca i32, align 4
  %16 = alloca ptr, align 8
  %17 = alloca ptr, align 8
  %18 = alloca %struct.CLzma2Dec, align 8
  %19 = alloca i32, align 4
  %20 = alloca i64, align 8
  %21 = alloca i64, align 8
  %22 = alloca [5 x i8], align 1
  %23 = alloca i32, align 4
  %24 = alloca i32, align 4
  store ptr %0, ptr %10, align 8
  store ptr %1, ptr %11, align 8
  store ptr %2, ptr %12, align 8
  store ptr %3, ptr %13, align 8
  store i8 %4, ptr %14, align 1
  store i32 %5, ptr %15, align 4
  store ptr %6, ptr %16, align 8
  store ptr %7, ptr %17, align 8
  %25 = load ptr, ptr %11, align 8
  %26 = load i64, ptr %25, align 8
  store i64 %26, ptr %20, align 8
  %27 = load ptr, ptr %13, align 8
  %28 = load i64, ptr %27, align 8
  store i64 %28, ptr %21, align 8
  %29 = getelementptr inbounds %struct.CLzma2Dec, ptr %18, i32 0, i32 0
  %30 = getelementptr inbounds %struct.CLzmaDec, ptr %29, i32 0, i32 2
  store ptr null, ptr %30, align 8
  %31 = getelementptr inbounds %struct.CLzma2Dec, ptr %18, i32 0, i32 0
  %32 = getelementptr inbounds %struct.CLzmaDec, ptr %31, i32 0, i32 1
  store ptr null, ptr %32, align 8
  %33 = load ptr, ptr %13, align 8
  store i64 0, ptr %33, align 8
  %34 = load ptr, ptr %11, align 8
  store i64 0, ptr %34, align 8
  %35 = load ptr, ptr %16, align 8
  store i32 0, ptr %35, align 4
  %36 = load ptr, ptr %10, align 8
  %37 = getelementptr inbounds %struct.CLzma2Dec, ptr %18, i32 0, i32 0
  %38 = getelementptr inbounds %struct.CLzmaDec, ptr %37, i32 0, i32 2
  store ptr %36, ptr %38, align 8
  %39 = load i64, ptr %20, align 8
  %40 = getelementptr inbounds %struct.CLzma2Dec, ptr %18, i32 0, i32 0
  %41 = getelementptr inbounds %struct.CLzmaDec, ptr %40, i32 0, i32 7
  store i64 %39, ptr %41, align 8
  %42 = load i8, ptr %14, align 1
  %43 = getelementptr inbounds [5 x i8], ptr %22, i64 0, i64 0
  %44 = call i32 @Lzma2Dec_GetOldProps(i8 noundef zeroext %42, ptr noundef %43)
  store i32 %44, ptr %23, align 4
  %45 = load i32, ptr %23, align 4
  %46 = icmp ne i32 %45, 0
  br i1 %46, label %47, label %49

47:                                               ; preds = %8
  %48 = load i32, ptr %23, align 4
  store i32 %48, ptr %9, align 4
  br label %82

49:                                               ; preds = %8
  %50 = getelementptr inbounds %struct.CLzma2Dec, ptr %18, i32 0, i32 0
  %51 = getelementptr inbounds [5 x i8], ptr %22, i64 0, i64 0
  %52 = load ptr, ptr %17, align 8
  %53 = call i32 @LzmaDec_AllocateProbs(ptr noundef %50, ptr noundef %51, i32 noundef 5, ptr noundef %52)
  store i32 %53, ptr %24, align 4
  %54 = load i32, ptr %24, align 4
  %55 = icmp ne i32 %54, 0
  br i1 %55, label %56, label %58

56:                                               ; preds = %49
  %57 = load i32, ptr %24, align 4
  store i32 %57, ptr %9, align 4
  br label %82

58:                                               ; preds = %49
  %59 = load i64, ptr %21, align 8
  %60 = load ptr, ptr %13, align 8
  store i64 %59, ptr %60, align 8
  %61 = load i64, ptr %20, align 8
  %62 = load ptr, ptr %12, align 8
  %63 = load ptr, ptr %13, align 8
  %64 = load i32, ptr %15, align 4
  %65 = load ptr, ptr %16, align 8
  %66 = call i32 @Lzma2Dec_DecodeToDic(ptr noundef %18, i64 noundef %61, ptr noundef %62, ptr noundef %63, i32 noundef %64, ptr noundef %65)
  store i32 %66, ptr %19, align 4
  %67 = getelementptr inbounds %struct.CLzma2Dec, ptr %18, i32 0, i32 0
  %68 = getelementptr inbounds %struct.CLzmaDec, ptr %67, i32 0, i32 6
  %69 = load i64, ptr %68, align 8
  %70 = load ptr, ptr %11, align 8
  store i64 %69, ptr %70, align 8
  %71 = load i32, ptr %19, align 4
  %72 = icmp eq i32 %71, 0
  br i1 %72, label %73, label %78

73:                                               ; preds = %58
  %74 = load ptr, ptr %16, align 8
  %75 = load i32, ptr %74, align 4
  %76 = icmp eq i32 %75, 3
  br i1 %76, label %77, label %78

77:                                               ; preds = %73
  store i32 6, ptr %19, align 4
  br label %78

78:                                               ; preds = %77, %73, %58
  %79 = getelementptr inbounds %struct.CLzma2Dec, ptr %18, i32 0, i32 0
  %80 = load ptr, ptr %17, align 8
  call void @LzmaDec_FreeProbs(ptr noundef %79, ptr noundef %80)
  %81 = load i32, ptr %19, align 4
  store i32 %81, ptr %9, align 4
  br label %82

82:                                               ; preds = %78, %56, %47
  %83 = load i32, ptr %9, align 4
  ret i32 %83
}