; Function Attrs: nounwind uwtable
define i32 @Lzma2Decode(ptr noundef %0, ptr noundef captures(none) %1, ptr noundef %2, ptr noundef captures(none) %3, i8 noundef zeroext %4, i32 noundef %5, ptr noundef initializes((0, 4)) %6, ptr noundef %7) local_unnamed_addr #0 {
  %9 = alloca %struct.CLzma2Dec, align 8
  %10 = alloca [5 x i8], align 1
  %11 = load i64, ptr %1, align 8
  %12 = load i64, ptr %3, align 8
  %13 = getelementptr inbounds nuw i8, ptr %9, i64 24
  %14 = getelementptr inbounds nuw i8, ptr %9, i64 16
  store i64 0, ptr %14, align 8
  store i64 0, ptr %3, align 8
  store i64 0, ptr %1, align 8
  store i32 0, ptr %6, align 4
  store ptr %0, ptr %13, align 8
  %15 = getelementptr inbounds nuw i8, ptr %9, i64 56
  store i64 %11, ptr %15, align 8
  %16 = zext i8 %4 to i32
  %17 = icmp ugt i8 %4, 40
  br i1 %17, label %Lzma2Dec_GetOldProps.exit, label %18

18:                                               ; preds = %8
  %19 = icmp eq i8 %4, 40
  br i1 %19, label %26, label %20

20:                                               ; preds = %18
  %21 = and i32 %16, 1
  %22 = or disjoint i32 %21, 2
  %23 = lshr i32 %16, 1
  %24 = add nuw nsw i32 %23, 11
  %25 = shl nuw i32 %22, %24
  br label %26

26:                                               ; preds = %18, %20
  %27 = phi i32 [ %25, %20 ], [ -1, %18 ]
  store i8 4, ptr %10, align 1
  %28 = trunc i32 %27 to i8
  %29 = getelementptr inbounds nuw i8, ptr %10, i64 1
  store i8 %28, ptr %29, align 1
  %30 = lshr i32 %27, 8
  %31 = trunc i32 %30 to i8
  %32 = getelementptr inbounds nuw i8, ptr %10, i64 2
  store i8 %31, ptr %32, align 1
  %33 = lshr i32 %27, 16
  %34 = trunc i32 %33 to i8
  %35 = getelementptr inbounds nuw i8, ptr %10, i64 3
  store i8 %34, ptr %35, align 1
  %36 = lshr i32 %27, 24
  %37 = trunc nuw i32 %36 to i8
  %38 = getelementptr inbounds nuw i8, ptr %10, i64 4
  store i8 %37, ptr %38, align 1
  %39 = call i32 @LzmaDec_AllocateProbs(ptr noundef nonnull %9, ptr noundef nonnull %10, i32 noundef 5, ptr noundef %7) #4
  %.not29 = icmp eq i32 %39, 0
  br i1 %.not29, label %40, label %Lzma2Dec_GetOldProps.exit

40:                                               ; preds = %26
  store i64 %12, ptr %3, align 8
  %41 = call i32 @Lzma2Dec_DecodeToDic(ptr noundef nonnull %9, i64 noundef %11, ptr noundef %2, ptr noundef nonnull %3, i32 noundef %5, ptr noundef nonnull %6)
  %42 = getelementptr inbounds nuw i8, ptr %9, i64 48
  %43 = load i64, ptr %42, align 8
  store i64 %43, ptr %1, align 8
  %44 = icmp eq i32 %41, 0
  br i1 %44, label %45, label %48

45:                                               ; preds = %40
  %46 = load i32, ptr %6, align 4
  %47 = icmp eq i32 %46, 3
  %spec.select = select i1 %47, i32 6, i32 0
  br label %48

48:                                               ; preds = %45, %40
  %.025 = phi i32 [ %41, %40 ], [ %spec.select, %45 ]
  call void @LzmaDec_FreeProbs(ptr noundef nonnull %9, ptr noundef %7) #4
  br label %Lzma2Dec_GetOldProps.exit

Lzma2Dec_GetOldProps.exit:                        ; preds = %8, %26, %48
  %.0 = phi i32 [ %.025, %48 ], [ %39, %26 ], [ 4, %8 ]
  ret i32 %.0
}